target datalayout = "e-m:e-p270:32:32-p271:32:32-p272:64:64-i64:64-i128:128-f80:128-n8:16:32:64-S128"
target triple = "x86_64-pc-linux-gnu"

%class.UPerfTest = type { ptr, i32, ptr, ptr, ptr, ptr, ptr, i8, ptr, ptr, i32, ptr, i32, i8, ptr, i32, i8, i8, i32, i32, i32, ptr, ptr, ptr }

@stdout = external global ptr, align 8
@.str.23 = private unnamed_addr constant [13 x i8] c"Test names:\0A\00", align 1
@.str.24 = private unnamed_addr constant [13 x i8] c"-----------\0A\00", align 1
@.str.25 = private unnamed_addr constant [4 x i8] c"%s\0A\00", align 1

; Function Attrs: mustprogress uwtable
define void @_ZN9UPerfTest5usageEv(ptr noundef nonnull align 8 dereferenceable(160) %0) unnamed_addr #2 align 2 {
  %2 = alloca ptr, align 8
  %3 = alloca i8, align 1
  %4 = alloca i32, align 4
  %5 = alloca ptr, align 8
  store ptr %0, ptr %2, align 8, !tbaa !8
  %6 = load ptr, ptr %2, align 8
  %7 = call i32 @puts(ptr noundef @_ZN9UPerfTest12gUsageStringE)
  %8 = getelementptr inbounds nuw %class.UPerfTest, ptr %6, i32 0, i32 3
  %9 = load ptr, ptr %8, align 8, !tbaa !25
  %10 = icmp ne ptr %9, null
  br i1 %10, label %11, label %15

11:                                               ; preds = %1
  %12 = getelementptr inbounds nuw %class.UPerfTest, ptr %6, i32 0, i32 3
  %13 = load ptr, ptr %12, align 8, !tbaa !25
  %14 = call i32 @puts(ptr noundef %13)
  br label %15

15:                                               ; preds = %11, %1
  call void @llvm.lifetime.start.p0(i64 1, ptr %3) #17
  %16 = getelementptr inbounds nuw %class.UPerfTest, ptr %6, i32 0, i32 16
  %17 = load i8, ptr %16, align 4, !tbaa !36
  store i8 %17, ptr %3, align 1, !tbaa !65
  %18 = getelementptr inbounds nuw %class.UPerfTest, ptr %6, i32 0, i32 16
  store i8 1, ptr %18, align 4, !tbaa !36
  %19 = load ptr, ptr @stdout, align 8, !tbaa !57
  %20 = call i32 (ptr, ptr, ...) @fprintf(ptr noundef %19, ptr noundef @.str.23) #17
  %21 = load ptr, ptr @stdout, align 8, !tbaa !57
  %22 = call i32 (ptr, ptr, ...) @fprintf(ptr noundef %21, ptr noundef @.str.24) #17
  call void @llvm.lifetime.start.p0(i64 4, ptr %4) #17
  store i32 0, ptr %4, align 4, !tbaa !10
  call void @llvm.lifetime.start.p0(i64 8, ptr %5) #17
  store ptr null, ptr %5, align 8, !tbaa !51
  br label %23

23:                                               ; preds = %47, %15
  %24 = load i32, ptr %4, align 4, !tbaa !10
  %25 = load ptr, ptr %6, align 8, !tbaa !16
  %26 = getelementptr inbounds ptr, ptr %25, i64 3
  %27 = load ptr, ptr %26, align 8
  %28 = call noundef ptr %27(ptr noundef nonnull align 8 dereferenceable(160) %6, i32 noundef %24, i8 noundef signext 0, ptr noundef nonnull align 8 dereferenceable(8) %5, ptr noundef null)
  %29 = load ptr, ptr %5, align 8, !tbaa !51
  %30 = icmp ne ptr %29, null
  br i1 %30, label %32, label %31

31:                                               ; preds = %23
  br label %49

32:                                               ; preds = %23
  %33 = load ptr, ptr @stdout, align 8, !tbaa !57
  %34 = load ptr, ptr %5, align 8, !tbaa !51
  %35 = call i32 (ptr, ptr, ...) @fprintf(ptr noundef %33, ptr noundef @.str.25, ptr noundef %34) #17
  %36 = load i32, ptr %4, align 4, !tbaa !10
  %37 = add nsw i32 %36, 1
  store i32 %37, ptr %4, align 4, !tbaa !10
  br label %38

38:                                               ; preds = %32
  %39 = load ptr, ptr %5, align 8, !tbaa !51
  %40 = icmp ne ptr %39, null
  br i1 %40, label %41, label %47

41:                                               ; preds = %38
  %42 = load ptr, ptr %5, align 8, !tbaa !51
  %43 = getelementptr inbounds i8, ptr %42, i64 0
  %44 = load i8, ptr %43, align 1, !tbaa !65
  %45 = sext i8 %44 to i32
  %46 = icmp ne i32 %45, 0
  br label %47

47:                                               ; preds = %41, %38
  %48 = phi i1 [ false, %38 ], [ %46, %41 ]
  br i1 %48, label %23, label %49, !llvm.loop !75

49:                                               ; preds = %47, %31
  %50 = load i8, ptr %3, align 1, !tbaa !65
  %51 = getelementptr inbounds nuw %class.UPerfTest, ptr %6, i32 0, i32 16
  store i8 %50, ptr %51, align 4, !tbaa !36
  call void @llvm.lifetime.end.p0(i64 8, ptr %5) #17
  call void @llvm.lifetime.end.p0(i64 4, ptr %4) #17
  call void @llvm.lifetime.end.p0(i64 1, ptr %3) #17
  ret void
}