; Function Attrs: mustprogress uwtable
define void @_ZN9UPerfTest5usageEv(ptr noundef nonnull align 8 dereferenceable(160) %0) unnamed_addr #3 align 2 {
  %2 = alloca ptr, align 8
  %3 = tail call i32 @puts(ptr noundef nonnull dereferenceable(1) @_ZN9UPerfTest12gUsageStringE)
  %4 = getelementptr inbounds nuw i8, ptr %0, i64 24
  %5 = load ptr, ptr %4, align 8, !tbaa !19
  %.not = icmp eq ptr %5, null
  br i1 %.not, label %8, label %6

6:                                                ; preds = %1
  %7 = tail call i32 @puts(ptr noundef nonnull dereferenceable(1) %5)
  br label %8

8:                                                ; preds = %6, %1
  %9 = getelementptr inbounds nuw i8, ptr %0, i64 116
  %10 = load i8, ptr %9, align 4, !tbaa !38
  store i8 1, ptr %9, align 4, !tbaa !38
  %11 = load ptr, ptr @stdout, align 8, !tbaa !54
  %12 = tail call i64 @fwrite(ptr nonnull @.str.23, i64 12, i64 1, ptr %11)
  %13 = load ptr, ptr @stdout, align 8, !tbaa !54
  %14 = tail call i64 @fwrite(ptr nonnull @.str.24, i64 12, i64 1, ptr %13)
  call void @llvm.lifetime.start.p0(i64 8, ptr nonnull %2) #23
  store ptr null, ptr %2, align 8, !tbaa !52
  br label %15

15:                                               ; preds = %25, %8
  %.0 = phi i32 [ 0, %8 ], [ %26, %25 ]
  %16 = load ptr, ptr %0, align 8, !tbaa !3
  %17 = getelementptr inbounds nuw i8, ptr %16, i64 24
  %18 = load ptr, ptr %17, align 8
  %19 = call noundef ptr %18(ptr noundef nonnull align 8 dereferenceable(160) %0, i32 noundef %.0, i8 noundef signext 0, ptr noundef nonnull align 8 dereferenceable(8) %2, ptr noundef null)
  %20 = load ptr, ptr %2, align 8, !tbaa !52
  %.not6 = icmp eq ptr %20, null
  br i1 %.not6, label %.critedge, label %21

21:                                               ; preds = %15
  %22 = load ptr, ptr @stdout, align 8, !tbaa !54
  %23 = call i32 (ptr, ptr, ...) @fprintf(ptr noundef %22, ptr noundef nonnull @.str.25, ptr noundef nonnull %20) #23
  %24 = load ptr, ptr %2, align 8, !tbaa !52
  %.not7 = icmp eq ptr %24, null
  br i1 %.not7, label %.critedge, label %25

25:                                               ; preds = %21
  %26 = add nuw nsw i32 %.0, 1
  %27 = load i8, ptr %24, align 1, !tbaa !53
  %.not8 = icmp eq i8 %27, 0
  br i1 %.not8, label %.critedge, label %15, !llvm.loop !61

.critedge:                                        ; preds = %21, %15, %25
  store i8 %10, ptr %9, align 4, !tbaa !38
  call void @llvm.lifetime.end.p0(i64 8, ptr nonnull %2) #23
  ret void
}